target datalayout = "e-m:e-p270:32:32-p271:32:32-p272:64:64-i64:64-i128:128-f80:128-n8:16:32:64-S128"
target triple = "x86_64-pc-linux-gnu"

%struct.archive_cryptor = type { ptr, ptr, ptr, ptr, ptr, ptr, ptr }
%struct.archive_hmac = type { ptr, ptr, ptr, ptr }
%struct.archive_crypto_ctx = type { ptr, ptr, [32 x i8], i32, [16 x i8], [16 x i8], i32 }

@__archive_cryptor = external constant %struct.archive_cryptor, align 8
@.str.26 = private unnamed_addr constant [2 x i8] c"p\00", align 1
@__archive_hmac = external constant %struct.archive_hmac, align 8

; Function Attrs: nounwind uwtable
define internal i32 @is_winzip_aes_encryption_supported(i32 noundef %0) #0 {
  %2 = alloca i32, align 4
  %3 = alloca i32, align 4
  %4 = alloca i64, align 8
  %5 = alloca i64, align 8
  %6 = alloca [18 x i8], align 16
  %7 = alloca [66 x i8], align 16
  %8 = alloca %struct.archive_crypto_ctx, align 8
  %9 = alloca ptr, align 8
  %10 = alloca i32, align 4
  %11 = alloca i32, align 4
  store i32 %0, ptr %3, align 4, !tbaa !11
  call void @llvm.lifetime.start.p0(i64 8, ptr %4) #11
  call void @llvm.lifetime.start.p0(i64 8, ptr %5) #11
  call void @llvm.lifetime.start.p0(i64 18, ptr %6) #11
  call void @llvm.lifetime.start.p0(i64 66, ptr %7) #11
  call void @llvm.lifetime.start.p0(i64 88, ptr %8) #11
  call void @llvm.lifetime.start.p0(i64 8, ptr %9) #11
  call void @llvm.lifetime.start.p0(i64 4, ptr %10) #11
  %12 = load i32, ptr %3, align 4, !tbaa !11
  %13 = icmp eq i32 %12, 2
  br i1 %13, label %14, label %15

14:                                               ; preds = %1
  store i64 8, ptr %5, align 8, !tbaa !48
  store i64 16, ptr %4, align 8, !tbaa !48
  br label %16

15:                                               ; preds = %1
  store i64 16, ptr %5, align 8, !tbaa !48
  store i64 32, ptr %4, align 8, !tbaa !48
  br label %16

16:                                               ; preds = %15, %14
  %17 = getelementptr inbounds [18 x i8], ptr %6, i64 0, i64 0
  %18 = load i64, ptr %5, align 8, !tbaa !48
  %19 = call i32 @archive_random(ptr noundef %17, i64 noundef %18)
  %20 = icmp ne i32 %19, 0
  br i1 %20, label %21, label %22

21:                                               ; preds = %16
  store i32 0, ptr %2, align 4
  store i32 1, ptr %11, align 4
  br label %56

22:                                               ; preds = %16
  %23 = load ptr, ptr @__archive_cryptor, align 8, !tbaa !103
  %24 = getelementptr inbounds [18 x i8], ptr %6, i64 0, i64 0
  %25 = load i64, ptr %5, align 8, !tbaa !48
  %26 = getelementptr inbounds [66 x i8], ptr %7, i64 0, i64 0
  %27 = load i64, ptr %4, align 8, !tbaa !48
  %28 = mul i64 %27, 2
  %29 = add i64 %28, 2
  %30 = call i32 %23(ptr noundef @.str.26, i64 noundef 1, ptr noundef %24, i64 noundef %25, i32 noundef 1000, ptr noundef %26, i64 noundef %29)
  store i32 %30, ptr %10, align 4, !tbaa !11
  %31 = load i32, ptr %10, align 4, !tbaa !11
  %32 = icmp ne i32 %31, 0
  br i1 %32, label %33, label %34

33:                                               ; preds = %22
  store i32 0, ptr %2, align 4
  store i32 1, ptr %11, align 4
  br label %56

34:                                               ; preds = %22
  %35 = load ptr, ptr getelementptr inbounds nuw (%struct.archive_cryptor, ptr @__archive_cryptor, i32 0, i32 4), align 8, !tbaa !104
  %36 = getelementptr inbounds [66 x i8], ptr %7, i64 0, i64 0
  %37 = load i64, ptr %4, align 8, !tbaa !48
  %38 = call i32 %35(ptr noundef %8, ptr noundef %36, i64 noundef %37)
  store i32 %38, ptr %10, align 4, !tbaa !11
  %39 = load i32, ptr %10, align 4, !tbaa !11
  %40 = icmp ne i32 %39, 0
  br i1 %40, label %41, label %42

41:                                               ; preds = %34
  store i32 0, ptr %2, align 4
  store i32 1, ptr %11, align 4
  br label %56

42:                                               ; preds = %34
  %43 = load ptr, ptr @__archive_hmac, align 8, !tbaa !105
  %44 = getelementptr inbounds [66 x i8], ptr %7, i64 0, i64 0
  %45 = load i64, ptr %4, align 8, !tbaa !48
  %46 = getelementptr inbounds nuw i8, ptr %44, i64 %45
  %47 = load i64, ptr %4, align 8, !tbaa !48
  %48 = call i32 %43(ptr noundef %9, ptr noundef %46, i64 noundef %47)
  store i32 %48, ptr %10, align 4, !tbaa !11
  %49 = load ptr, ptr getelementptr inbounds nuw (%struct.archive_cryptor, ptr @__archive_cryptor, i32 0, i32 6), align 8, !tbaa !69
  %50 = call i32 %49(ptr noundef %8)
  %51 = load i32, ptr %10, align 4, !tbaa !11
  %52 = icmp ne i32 %51, 0
  br i1 %52, label %53, label %54

53:                                               ; preds = %42
  store i32 0, ptr %2, align 4
  store i32 1, ptr %11, align 4
  br label %56

54:                                               ; preds = %42
  %55 = load ptr, ptr getelementptr inbounds nuw (%struct.archive_hmac, ptr @__archive_hmac, i32 0, i32 3), align 8, !tbaa !72
  call void %55(ptr noundef %9)
  store i32 1, ptr %2, align 4
  store i32 1, ptr %11, align 4
  br label %56

56:                                               ; preds = %54, %53, %41, %33, %21
  call void @llvm.lifetime.end.p0(i64 4, ptr %10) #11
  call void @llvm.lifetime.end.p0(i64 8, ptr %9) #11
  call void @llvm.lifetime.end.p0(i64 88, ptr %8) #11
  call void @llvm.lifetime.end.p0(i64 66, ptr %7) #11
  call void @llvm.lifetime.end.p0(i64 18, ptr %6) #11
  call void @llvm.lifetime.end.p0(i64 8, ptr %5) #11
  call void @llvm.lifetime.end.p0(i64 8, ptr %4) #11
  %57 = load i32, ptr %2, align 4
  ret i32 %57
}