; Function Attrs: nounwind uwtable
define internal fastcc range(i32 0, 2) i32 @is_winzip_aes_encryption_supported(i32 noundef range(i32 2, 4) %0) unnamed_addr #0 {
  %2 = alloca [18 x i8], align 16
  %3 = alloca [66 x i8], align 16
  %4 = alloca %struct.archive_crypto_ctx, align 8
  %5 = alloca ptr, align 8
  call void @llvm.lifetime.start.p0(i64 18, ptr nonnull %2) #13
  call void @llvm.lifetime.start.p0(i64 66, ptr nonnull %3) #13
  call void @llvm.lifetime.start.p0(i64 88, ptr nonnull %4) #13
  call void @llvm.lifetime.start.p0(i64 8, ptr nonnull %5) #13
  %6 = icmp eq i32 %0, 2
  %. = select i1 %6, i64 16, i64 32
  %.16 = select i1 %6, i64 8, i64 16
  %7 = call i32 @archive_random(ptr noundef nonnull %2, i64 noundef %.16) #13
  %.not = icmp eq i32 %7, 0
  br i1 %.not, label %8, label %23

8:                                                ; preds = %1
  %9 = load ptr, ptr @__archive_cryptor, align 8, !tbaa !95
  %10 = shl nuw nsw i64 %., 1
  %11 = or disjoint i64 %10, 2
  %12 = call i32 %9(ptr noundef nonnull @.str.26, i64 noundef 1, ptr noundef nonnull %2, i64 noundef %.16, i32 noundef 1000, ptr noundef nonnull %3, i64 noundef %11) #13
  %.not13 = icmp eq i32 %12, 0
  br i1 %.not13, label %13, label %23

13:                                               ; preds = %8
  %14 = load ptr, ptr getelementptr inbounds nuw (i8, ptr @__archive_cryptor, i64 32), align 8, !tbaa !96
  %15 = call i32 %14(ptr noundef nonnull %4, ptr noundef nonnull %3, i64 noundef %.) #13
  %.not14 = icmp eq i32 %15, 0
  br i1 %.not14, label %16, label %23

16:                                               ; preds = %13
  %17 = load ptr, ptr @__archive_hmac, align 8, !tbaa !97
  %..sroa.sel.v.sroa.sel.v.sroa.sel.v = select i1 %6, i64 16, i64 32
  %..sroa.sel.v.sroa.sel.v.sroa.sel = getelementptr inbounds nuw i8, ptr %3, i64 %..sroa.sel.v.sroa.sel.v.sroa.sel.v
  %18 = call i32 %17(ptr noundef nonnull %5, ptr noundef nonnull %..sroa.sel.v.sroa.sel.v.sroa.sel, i64 noundef %.) #13
  %19 = load ptr, ptr getelementptr inbounds nuw (i8, ptr @__archive_cryptor, i64 48), align 8, !tbaa !55
  %20 = call i32 %19(ptr noundef nonnull %4) #13
  %.not15 = icmp eq i32 %18, 0
  br i1 %.not15, label %21, label %23

21:                                               ; preds = %16
  %22 = load ptr, ptr getelementptr inbounds nuw (i8, ptr @__archive_hmac, i64 24), align 8, !tbaa !58
  call void %22(ptr noundef nonnull %5) #13
  br label %23

23:                                               ; preds = %16, %13, %8, %1, %21
  %.012 = phi i32 [ 1, %21 ], [ 0, %1 ], [ 0, %8 ], [ 0, %13 ], [ 0, %16 ]
  call void @llvm.lifetime.end.p0(i64 8, ptr nonnull %5) #13
  call void @llvm.lifetime.end.p0(i64 88, ptr nonnull %4) #13
  call void @llvm.lifetime.end.p0(i64 66, ptr nonnull %3) #13
  call void @llvm.lifetime.end.p0(i64 18, ptr nonnull %2) #13
  ret i32 %.012
}